ARM GAS  C:\Users\wl\AppData\Local\Temp\cc4pGp5M.s 			page 1


   1              		.syntax unified
   2              		.cpu cortex-m0
   3              		.fpu softvfp
   4              		.eabi_attribute 20, 1
   5              		.eabi_attribute 21, 1
   6              		.eabi_attribute 23, 3
   7              		.eabi_attribute 24, 1
   8              		.eabi_attribute 25, 1
   9              		.eabi_attribute 26, 1
  10              		.eabi_attribute 30, 1
  11              		.eabi_attribute 34, 0
  12              		.eabi_attribute 18, 4
  13              		.thumb
  14              		.syntax unified
  15              		.file	"main.c"
  16              		.text
  17              	.Ltext0:
  18              		.cfi_sections	.debug_frame
  19              		.section	.text.main,"ax",%progbits
  20              		.align	2
  21              		.global	main
  22              		.code	16
  23              		.thumb_func
  24              		.type	main, %function
  25              	main:
  26              	.LFB35:
  27              		.file 1 "main.c"
   1:main.c        **** /* ========================================
   2:main.c        ****  *
   3:main.c        ****  * Copyright YOUR COMPANY, THE YEAR
   4:main.c        ****  * All Rights Reserved
   5:main.c        ****  * UNPUBLISHED, LICENSED SOFTWARE.
   6:main.c        ****  *
   7:main.c        ****  * CONFIDENTIAL AND PROPRIETARY INFORMATION
   8:main.c        ****  * WHICH IS THE PROPERTY OF your company.
   9:main.c        ****  *
  10:main.c        ****  * ========================================
  11:main.c        **** */
  12:main.c        **** #include "project.h"
  13:main.c        ****  
  14:main.c        **** 
  15:main.c        **** int main(void)
  16:main.c        **** {
  28              		.loc 1 16 0
  29              		.cfi_startproc
  30              		@ args = 0, pretend = 0, frame = 8
  31              		@ frame_needed = 0, uses_anonymous_args = 0
  32 0000 70B5     		push	{r4, r5, r6, lr}
  33              		.cfi_def_cfa_offset 16
  34              		.cfi_offset 4, -16
  35              		.cfi_offset 5, -12
  36              		.cfi_offset 6, -8
  37              		.cfi_offset 14, -4
  38 0002 82B0     		sub	sp, sp, #8
  39              		.cfi_def_cfa_offset 24
  40              	.LVL0:
  17:main.c        ****     uint8 pwm1_compare = 0;
ARM GAS  C:\Users\wl\AppData\Local\Temp\cc4pGp5M.s 			page 2


  18:main.c        ****     uint8 pwm2_compare = 0;
  19:main.c        ****     
  20:main.c        ****     uint8 i2cbuffer[2] = {0};
  41              		.loc 1 20 0
  42 0004 01AC     		add	r4, sp, #4
  43 0006 0023     		movs	r3, #0
  44 0008 2380     		strh	r3, [r4]
  21:main.c        ****     
  22:main.c        ****     CyGlobalIntEnable; /* Enable global interrupts. */
  45              		.loc 1 22 0
  46              		.syntax divided
  47              	@ 22 "main.c" 1
  48 000a 62B6     		CPSIE   i
  49              	@ 0 "" 2
  23:main.c        ****     /* Place your initialization/startup code here (e.g. MyInst_Start()) */
  24:main.c        ****     PWM_Start();
  50              		.loc 1 24 0
  51              		.thumb
  52              		.syntax unified
  53 000c FFF7FEFF 		bl	PWM_Start
  54              	.LVL1:
  25:main.c        ****     PWM_1_Start();
  55              		.loc 1 25 0
  56 0010 FFF7FEFF 		bl	PWM_1_Start
  57              	.LVL2:
  26:main.c        ****     
  27:main.c        ****     I2C_Start();
  58              		.loc 1 27 0
  59 0014 FFF7FEFF 		bl	I2C_Start
  60              	.LVL3:
  28:main.c        ****     //第一个参数决定了buffersize, 第二个参数决定可读写的size
  29:main.c        ****     I2C_EzI2CSetBuffer1(2, 2, i2cbuffer);
  61              		.loc 1 29 0
  62 0018 2200     		movs	r2, r4
  63 001a 0221     		movs	r1, #2
  64 001c 0220     		movs	r0, #2
  65 001e FFF7FEFF 		bl	I2C_EzI2CSetBuffer1
  66              	.LVL4:
  18:main.c        ****     
  67              		.loc 1 18 0
  68 0022 0025     		movs	r5, #0
  17:main.c        ****     uint8 pwm2_compare = 0;
  69              		.loc 1 17 0
  70 0024 0026     		movs	r6, #0
  71              	.LVL5:
  72              	.L2:
  30:main.c        ****    
  31:main.c        ****     for(;;)
  32:main.c        ****     {
  33:main.c        ****         /* Place your application code here. */
  34:main.c        ****         if(pwm1_compare != i2cbuffer[0]) 
  73              		.loc 1 34 0
  74 0026 01AB     		add	r3, sp, #4
  75 0028 1C78     		ldrb	r4, [r3]
  76 002a A642     		cmp	r6, r4
  77 002c 03D0     		beq	.L3
  78              	.LVL6:
ARM GAS  C:\Users\wl\AppData\Local\Temp\cc4pGp5M.s 			page 3


  35:main.c        ****         {
  36:main.c        ****             pwm1_compare = i2cbuffer[0];
  37:main.c        ****             PWM_WriteCompare(pwm1_compare);
  79              		.loc 1 37 0
  80 002e 2000     		movs	r0, r4
  81 0030 FFF7FEFF 		bl	PWM_WriteCompare
  82              	.LVL7:
  36:main.c        ****             PWM_WriteCompare(pwm1_compare);
  83              		.loc 1 36 0
  84 0034 2600     		movs	r6, r4
  85              	.LVL8:
  86              	.L3:
  38:main.c        ****         }
  39:main.c        ****         
  40:main.c        ****         if(pwm2_compare != i2cbuffer[1]) 
  87              		.loc 1 40 0
  88 0036 01AB     		add	r3, sp, #4
  89 0038 5C78     		ldrb	r4, [r3, #1]
  90 003a A542     		cmp	r5, r4
  91 003c F3D0     		beq	.L2
  92              	.LVL9:
  41:main.c        ****         {
  42:main.c        ****             pwm2_compare = i2cbuffer[1];
  43:main.c        ****             PWM_1_WriteCompare(pwm2_compare);
  93              		.loc 1 43 0
  94 003e 2000     		movs	r0, r4
  95 0040 FFF7FEFF 		bl	PWM_1_WriteCompare
  96              	.LVL10:
  42:main.c        ****             PWM_1_WriteCompare(pwm2_compare);
  97              		.loc 1 42 0
  98 0044 2500     		movs	r5, r4
  99 0046 EEE7     		b	.L2
 100              		.cfi_endproc
 101              	.LFE35:
 102              		.size	main, .-main
 103              		.text
 104              	.Letext0:
 105              		.file 2 "Generated_Source\\PSoC4/PWM.h"
 106              		.file 3 "Generated_Source\\PSoC4/PWM_1.h"
 107              		.file 4 "Generated_Source\\PSoC4/I2C.h"
 108              		.file 5 "Generated_Source\\PSoC4/I2C_EZI2C.h"
 109              		.file 6 "Generated_Source\\PSoC4/cytypes.h"