ARM GAS  C:\Users\wl\AppData\Local\Temp\ccBeOP7h.s 			page 1


   1              		.syntax unified
   2              		.cpu cortex-m0
   3              		.fpu softvfp
   4              		.eabi_attribute 20, 1
   5              		.eabi_attribute 21, 1
   6              		.eabi_attribute 23, 3
   7              		.eabi_attribute 24, 1
   8              		.eabi_attribute 25, 1
   9              		.eabi_attribute 26, 1
  10              		.eabi_attribute 30, 1
  11              		.eabi_attribute 34, 0
  12              		.eabi_attribute 18, 4
  13              		.thumb
  14              		.syntax unified
  15              		.file	"main.c"
  16              		.text
  17              	.Ltext0:
  18              		.cfi_sections	.debug_frame
  19              		.section	.text.Timer_Int_Handler,"ax",%progbits
  20              		.align	2
  21              		.global	Timer_Int_Handler
  22              		.code	16
  23              		.thumb_func
  24              		.type	Timer_Int_Handler, %function
  25              	Timer_Int_Handler:
  26              	.LFB35:
  27              		.file 1 "main.c"
   1:main.c        **** /* ========================================
   2:main.c        ****  *
   3:main.c        ****  * Copyright YOUR COMPANY, THE YEAR
   4:main.c        ****  * All Rights Reserved
   5:main.c        ****  * UNPUBLISHED, LICENSED SOFTWARE.
   6:main.c        ****  *
   7:main.c        ****  * CONFIDENTIAL AND PROPRIETARY INFORMATION
   8:main.c        ****  * WHICH IS THE PROPERTY OF your company.
   9:main.c        ****  *
  10:main.c        ****  * ========================================
  11:main.c        **** */
  12:main.c        **** #include <project.h>
  13:main.c        **** 
  14:main.c        **** 
  15:main.c        **** CY_ISR(Timer_Int_Handler)
  16:main.c        **** {
  28              		.loc 1 16 0
  29              		.cfi_startproc
  30              		@ args = 0, pretend = 0, frame = 0
  31              		@ frame_needed = 0, uses_anonymous_args = 0
  32 0000 10B5     		push	{r4, lr}
  33              		.cfi_def_cfa_offset 8
  34              		.cfi_offset 4, -8
  35              		.cfi_offset 14, -4
  17:main.c        ****     Timer_ClearInterrupt(Timer_INTR_MASK_TC);
  36              		.loc 1 17 0
  37 0002 0120     		movs	r0, #1
  38 0004 FFF7FEFF 		bl	Timer_ClearInterrupt
  39              	.LVL0:
  18:main.c        **** }
ARM GAS  C:\Users\wl\AppData\Local\Temp\ccBeOP7h.s 			page 2


  40              		.loc 1 18 0
  41              		@ sp needed
  42 0008 10BD     		pop	{r4, pc}
  43              		.cfi_endproc
  44              	.LFE35:
  45              		.size	Timer_Int_Handler, .-Timer_Int_Handler
  46 000a C046     		.section	.text.main,"ax",%progbits
  47              		.align	2
  48              		.global	main
  49              		.code	16
  50              		.thumb_func
  51              		.type	main, %function
  52              	main:
  53              	.LFB36:
  19:main.c        **** 
  20:main.c        **** int main (void)
  21:main.c        **** {
  54              		.loc 1 21 0
  55              		.cfi_startproc
  56              		@ Volatile: function does not return.
  57              		@ args = 0, pretend = 0, frame = 0
  58              		@ frame_needed = 0, uses_anonymous_args = 0
  59 0000 10B5     		push	{r4, lr}
  60              		.cfi_def_cfa_offset 8
  61              		.cfi_offset 4, -8
  62              		.cfi_offset 14, -4
  22:main.c        ****     CyGlobalIntEnable;   /* Enable global interrupts */
  63              		.loc 1 22 0
  64              		.syntax divided
  65              	@ 22 "main.c" 1
  66 0002 62B6     		CPSIE   i
  67              	@ 0 "" 2
  23:main.c        ****     
  24:main.c        ****     UART_Start();
  68              		.loc 1 24 0
  69              		.thumb
  70              		.syntax unified
  71 0004 FFF7FEFF 		bl	UART_Start
  72              	.LVL1:
  25:main.c        ****     Timer_Int_StartEx(Timer_Int_Handler);
  73              		.loc 1 25 0
  74 0008 1048     		ldr	r0, .L4
  75 000a FFF7FEFF 		bl	Timer_Int_StartEx
  76              	.LVL2:
  77              	.L3:
  26:main.c        ****     
  27:main.c        ****     /* Place your initialization/startup code here (e.g. MyInst_Start()) */
  28:main.c        ****     
  29:main.c        ****     for(;;)
  30:main.c        ****     {
  31:main.c        ****         CyDelay(7000);
  78              		.loc 1 31 0 discriminator 1
  79 000e 1048     		ldr	r0, .L4+4
  80 0010 FFF7FEFF 		bl	CyDelay
  81              	.LVL3:
  32:main.c        ****         UART_UartPutString("Going to Sleep in 3....\r\n");
  82              		.loc 1 32 0 discriminator 1
ARM GAS  C:\Users\wl\AppData\Local\Temp\ccBeOP7h.s 			page 3


  83 0014 0F48     		ldr	r0, .L4+8
  84 0016 FFF7FEFF 		bl	UART_UartPutString
  85              	.LVL4:
  33:main.c        ****         CyDelay(1000);
  86              		.loc 1 33 0 discriminator 1
  87 001a FA24     		movs	r4, #250
  88 001c A400     		lsls	r4, r4, #2
  89 001e 2000     		movs	r0, r4
  90 0020 FFF7FEFF 		bl	CyDelay
  91              	.LVL5:
  34:main.c        ****         UART_UartPutString("2...\r\n");
  92              		.loc 1 34 0 discriminator 1
  93 0024 0C48     		ldr	r0, .L4+12
  94 0026 FFF7FEFF 		bl	UART_UartPutString
  95              	.LVL6:
  35:main.c        ****         CyDelay(1000);
  96              		.loc 1 35 0 discriminator 1
  97 002a 2000     		movs	r0, r4
  98 002c FFF7FEFF 		bl	CyDelay
  99              	.LVL7:
  36:main.c        ****         UART_UartPutString("1...(wake up in 10s)\r\n");
 100              		.loc 1 36 0 discriminator 1
 101 0030 0A48     		ldr	r0, .L4+16
 102 0032 FFF7FEFF 		bl	UART_UartPutString
 103              	.LVL8:
  37:main.c        ****         CyDelay(1000);
 104              		.loc 1 37 0 discriminator 1
 105 0036 2000     		movs	r0, r4
 106 0038 FFF7FEFF 		bl	CyDelay
 107              	.LVL9:
  38:main.c        ****         Timer_Start();
 108              		.loc 1 38 0 discriminator 1
 109 003c FFF7FEFF 		bl	Timer_Start
 110              	.LVL10:
  39:main.c        ****         //任何终端可以终止睡眠状态
  40:main.c        ****         CySysPmSleep();
 111              		.loc 1 40 0 discriminator 1
 112 0040 FFF7FEFF 		bl	CySysPmSleep
 113              	.LVL11:
  41:main.c        ****         
  42:main.c        ****         UART_UartPutString("wake up\r\n");
 114              		.loc 1 42 0 discriminator 1
 115 0044 0648     		ldr	r0, .L4+20
 116 0046 FFF7FEFF 		bl	UART_UartPutString
 117              	.LVL12:
 118 004a E0E7     		b	.L3
 119              	.L5:
 120              		.align	2
 121              	.L4:
 122 004c 00000000 		.word	Timer_Int_Handler
 123 0050 581B0000 		.word	7000
 124 0054 00000000 		.word	.LC1
 125 0058 1C000000 		.word	.LC3
 126 005c 24000000 		.word	.LC5
 127 0060 3C000000 		.word	.LC7
 128              		.cfi_endproc
 129              	.LFE36:
ARM GAS  C:\Users\wl\AppData\Local\Temp\ccBeOP7h.s 			page 4


 130              		.size	main, .-main
 131              		.section	.rodata.str1.4,"aMS",%progbits,1
 132              		.align	2
 133              	.LC1:
 134 0000 476F696E 		.ascii	"Going to Sleep in 3....\015\012\000"
 134      6720746F 
 134      20536C65 
 134      65702069 
 134      6E20332E 
 135 001a 0000     		.space	2
 136              	.LC3:
 137 001c 322E2E2E 		.ascii	"2...\015\012\000"
 137      0D0A00
 138 0023 00       		.space	1
 139              	.LC5:
 140 0024 312E2E2E 		.ascii	"1...(wake up in 10s)\015\012\000"
 140      2877616B 
 140      65207570 
 140      20696E20 
 140      31307329 
 141 003b 00       		.space	1
 142              	.LC7:
 143 003c 77616B65 		.ascii	"wake up\015\012\000"
 143      2075700D 
 143      0A00
 144              		.text
 145              	.Letext0:
 146              		.file 2 "Generated_Source\\PSoC4/Timer.h"
 147              		.file 3 "Generated_Source\\PSoC4/UART.h"
 148              		.file 4 "Generated_Source\\PSoC4/Timer_Int.h"
 149              		.file 5 "Generated_Source\\PSoC4/CyLib.h"
 150              		.file 6 "Generated_Source\\PSoC4/UART_SPI_UART.h"
 151              		.file 7 "Generated_Source\\PSoC4/cyPm.h"
 152              		.file 8 "Generated_Source\\PSoC4/cytypes.h"