ARM GAS  C:\Users\wl\AppData\Local\Temp\ccjX5ChU.s 			page 1


   1              		.syntax unified
   2              		.cpu cortex-m0
   3              		.fpu softvfp
   4              		.eabi_attribute 20, 1
   5              		.eabi_attribute 21, 1
   6              		.eabi_attribute 23, 3
   7              		.eabi_attribute 24, 1
   8              		.eabi_attribute 25, 1
   9              		.eabi_attribute 26, 1
  10              		.eabi_attribute 30, 1
  11              		.eabi_attribute 34, 0
  12              		.eabi_attribute 18, 4
  13              		.thumb
  14              		.syntax unified
  15              		.file	"main.c"
  16              		.text
  17              	.Ltext0:
  18              		.cfi_sections	.debug_frame
  19              		.section	.text.main,"ax",%progbits
  20              		.align	2
  21              		.global	main
  22              		.code	16
  23              		.thumb_func
  24              		.type	main, %function
  25              	main:
  26              	.LFB35:
  27              		.file 1 "main.c"
   1:main.c        **** /* ========================================
   2:main.c        ****  *
   3:main.c        ****  * Copyright YOUR COMPANY, THE YEAR
   4:main.c        ****  * All Rights Reserved
   5:main.c        ****  * UNPUBLISHED, LICENSED SOFTWARE.
   6:main.c        ****  *
   7:main.c        ****  * CONFIDENTIAL AND PROPRIETARY INFORMATION
   8:main.c        ****  * WHICH IS THE PROPERTY OF your company.
   9:main.c        ****  *
  10:main.c        ****  * ========================================
  11:main.c        **** */
  12:main.c        **** #include "project.h"
  13:main.c        **** 
  14:main.c        **** 
  15:main.c        **** int main(void)
  16:main.c        **** {
  28              		.loc 1 16 0
  29              		.cfi_startproc
  30              		@ args = 0, pretend = 0, frame = 0
  31              		@ frame_needed = 0, uses_anonymous_args = 0
  32 0000 70B5     		push	{r4, r5, r6, lr}
  33              		.cfi_def_cfa_offset 16
  34              		.cfi_offset 4, -16
  35              		.cfi_offset 5, -12
  36              		.cfi_offset 6, -8
  37              		.cfi_offset 14, -4
  38              	.LVL0:
  17:main.c        ****     int status = 0;
  18:main.c        ****     int oldStatus = -1;
  19:main.c        ****     
ARM GAS  C:\Users\wl\AppData\Local\Temp\ccjX5ChU.s 			page 2


  20:main.c        ****     
  21:main.c        ****     CyGlobalIntEnable; /* Enable global interrupts. */
  39              		.loc 1 21 0
  40              		.syntax divided
  41              	@ 21 "main.c" 1
  42 0002 62B6     		CPSIE   i
  43              	@ 0 "" 2
  22:main.c        ****     /* Place your initialization/startup code here (e.g. MyInst_Start()) */
  23:main.c        ****     UART_Start();
  44              		.loc 1 23 0
  45              		.thumb
  46              		.syntax unified
  47 0004 FFF7FEFF 		bl	UART_Start
  48              	.LVL1:
  18:main.c        ****     
  49              		.loc 1 18 0
  50 0008 0125     		movs	r5, #1
  51 000a 6D42     		rsbs	r5, r5, #0
  52              	.LVL2:
  53              	.L2:
  24:main.c        ****     
  25:main.c        ****     for(;;)
  26:main.c        ****     {
  27:main.c        ****         status = Status_Reg_Read();
  54              		.loc 1 27 0
  55 000c FFF7FEFF 		bl	Status_Reg_Read
  56              	.LVL3:
  57 0010 0400     		movs	r4, r0
  58              	.LVL4:
  28:main.c        ****         if(status != oldStatus) 
  59              		.loc 1 28 0
  60 0012 8542     		cmp	r5, r0
  61 0014 FAD0     		beq	.L2
  29:main.c        ****         {
  30:main.c        ****             UART_UartPutChar('0' + status);
  62              		.loc 1 30 0
  63 0016 3030     		adds	r0, r0, #48
  64              	.LVL5:
  65 0018 FFF7FEFF 		bl	UART_SpiUartWriteTxData
  66              	.LVL6:
  31:main.c        ****             UART_UartPutChar('\r');
  67              		.loc 1 31 0
  68 001c 0D20     		movs	r0, #13
  69 001e FFF7FEFF 		bl	UART_SpiUartWriteTxData
  70              	.LVL7:
  32:main.c        ****             oldStatus = status;
  71              		.loc 1 32 0
  72 0022 2500     		movs	r5, r4
  73 0024 F2E7     		b	.L2
  74              		.cfi_endproc
  75              	.LFE35:
  76              		.size	main, .-main
  77 0026 C046     		.text
  78              	.Letext0:
  79              		.file 2 "Generated_Source\\PSoC4/UART.h"
  80              		.file 3 "Generated_Source\\PSoC4/Status_Reg.h"
  81              		.file 4 "Generated_Source\\PSoC4/UART_SPI_UART.h"
ARM GAS  C:\Users\wl\AppData\Local\Temp\ccjX5ChU.s 			page 3


  82              		.file 5 "Generated_Source\\PSoC4/cytypes.h"