ARM GAS  C:\Users\wl\AppData\Local\Temp\ccR4N6qd.s 			page 1


   1              		.syntax unified
   2              		.cpu cortex-m0
   3              		.fpu softvfp
   4              		.eabi_attribute 20, 1
   5              		.eabi_attribute 21, 1
   6              		.eabi_attribute 23, 3
   7              		.eabi_attribute 24, 1
   8              		.eabi_attribute 25, 1
   9              		.eabi_attribute 26, 1
  10              		.eabi_attribute 30, 1
  11              		.eabi_attribute 34, 0
  12              		.eabi_attribute 18, 4
  13              		.thumb
  14              		.syntax unified
  15              		.file	"main.c"
  16              		.text
  17              	.Ltext0:
  18              		.cfi_sections	.debug_frame
  19              		.section	.text.updateLed,"ax",%progbits
  20              		.align	2
  21              		.global	updateLed
  22              		.code	16
  23              		.thumb_func
  24              		.type	updateLed, %function
  25              	updateLed:
  26              	.LFB35:
  27              		.file 1 "main.c"
   1:main.c        ****  /* ========================================
   2:main.c        ****  *
   3:main.c        ****  * Copyright YOUR COMPANY, THE YEAR
   4:main.c        ****  * All Rights Reserved
   5:main.c        ****  * UNPUBLISHED, LICENSED SOFTWARE.
   6:main.c        ****  *
   7:main.c        ****  * CONFIDENTIAL AND PROPRIETARY INFORMATION
   8:main.c        ****  * WHICH IS THE PROPERTY OF your company.
   9:main.c        ****  *
  10:main.c        ****  * ========================================
  11:main.c        **** */
  12:main.c        **** #include "project.h"
  13:main.c        **** 
  14:main.c        **** 
  15:main.c        **** uint16 fingerPos = 0XFFFF;
  16:main.c        **** uint16 fingerPosOld = 0XFFFF;
  17:main.c        **** 
  18:main.c        **** //notify = 1 , 非nottify = 0
  19:main.c        **** int capsenseNotify;
  20:main.c        **** 
  21:main.c        **** void updateLed() 
  22:main.c        **** {
  28              		.loc 1 22 0
  29              		.cfi_startproc
  30              		@ args = 0, pretend = 0, frame = 16
  31              		@ frame_needed = 0, uses_anonymous_args = 0
  32 0000 00B5     		push	{lr}
  33              		.cfi_def_cfa_offset 4
  34              		.cfi_offset 14, -4
  35 0002 85B0     		sub	sp, sp, #20
ARM GAS  C:\Users\wl\AppData\Local\Temp\ccR4N6qd.s 			page 2


  36              		.cfi_def_cfa_offset 24
  23:main.c        ****     //1.未连接,return
  24:main.c        ****     if (CyBle_GetState() != CYBLE_STATE_CONNECTED)
  37              		.loc 1 24 0
  38 0004 0B4B     		ldr	r3, .L4
  39 0006 1B78     		ldrb	r3, [r3]
  40 0008 022B     		cmp	r3, #2
  41 000a 11D1     		bne	.L1
  25:main.c        ****     {
  26:main.c        ****         return;
  27:main.c        ****     }
  28:main.c        ****     //2.获取LED状态取反
  29:main.c        ****     int currentLed = (!red_Read());
  42              		.loc 1 29 0
  43 000c FFF7FEFF 		bl	red_Read
  44              	.LVL0:
  45 0010 4342     		rsbs	r3, r0, #0
  46 0012 4341     		adcs	r3, r3, r0
  47 0014 0393     		str	r3, [sp, #12]
  30:main.c        ****     
  31:main.c        ****     //3.写入GTTA
  32:main.c        ****     CYBLE_GATTS_HANDLE_VALUE_NTF_T tempHandle;
  33:main.c        ****     tempHandle.attrHandle = CYBLE_LEDCAPSENSE_LED_CHAR_HANDLE;
  48              		.loc 1 33 0
  49 0016 1223     		movs	r3, #18
  50 0018 6A46     		mov	r2, sp
  51 001a 1381     		strh	r3, [r2, #8]
  34:main.c        ****     tempHandle.value.val = (uint8*)&currentLed;
  52              		.loc 1 34 0
  53 001c 03AB     		add	r3, sp, #12
  54 001e 0093     		str	r3, [sp]
  35:main.c        ****     tempHandle.value.len = 1;
  55              		.loc 1 35 0
  56 0020 0123     		movs	r3, #1
  57 0022 9380     		strh	r3, [r2, #4]
  36:main.c        ****     CyBle_GattsWriteAttributeValue(&tempHandle, 0, &cyBle_connHandle, 0);
  58              		.loc 1 36 0
  59 0024 0023     		movs	r3, #0
  60 0026 044A     		ldr	r2, .L4+4
  61 0028 0021     		movs	r1, #0
  62 002a 6846     		mov	r0, sp
  63 002c FFF7FEFF 		bl	CyBle_GattsWriteAttributeValue
  64              	.LVL1:
  65              	.L1:
  37:main.c        **** }
  66              		.loc 1 37 0
  67 0030 05B0     		add	sp, sp, #20
  68              		@ sp needed
  69 0032 00BD     		pop	{pc}
  70              	.L5:
  71              		.align	2
  72              	.L4:
  73 0034 00000000 		.word	cyBle_state
  74 0038 00000000 		.word	cyBle_connHandle
  75              		.cfi_endproc
  76              	.LFE35:
  77              		.size	updateLed, .-updateLed
ARM GAS  C:\Users\wl\AppData\Local\Temp\ccR4N6qd.s 			page 3


  78              		.section	.text.updateCapsense,"ax",%progbits
  79              		.align	2
  80              		.global	updateCapsense
  81              		.code	16
  82              		.thumb_func
  83              		.type	updateCapsense, %function
  84              	updateCapsense:
  85              	.LFB36:
  38:main.c        **** 
  39:main.c        **** 
  40:main.c        **** void updateCapsense() 
  41:main.c        **** {
  86              		.loc 1 41 0
  87              		.cfi_startproc
  88              		@ args = 0, pretend = 0, frame = 16
  89              		@ frame_needed = 0, uses_anonymous_args = 0
  90 0000 00B5     		push	{lr}
  91              		.cfi_def_cfa_offset 4
  92              		.cfi_offset 14, -4
  93 0002 85B0     		sub	sp, sp, #20
  94              		.cfi_def_cfa_offset 24
  42:main.c        ****     if (CyBle_GetState() != CYBLE_STATE_CONNECTED)
  95              		.loc 1 42 0
  96 0004 124B     		ldr	r3, .L10
  97 0006 1B78     		ldrb	r3, [r3]
  98 0008 022B     		cmp	r3, #2
  99 000a 1FD1     		bne	.L6
  43:main.c        ****     {
  44:main.c        ****         return;
  45:main.c        ****     }
  46:main.c        ****     
  47:main.c        ****     CYBLE_GATTS_HANDLE_VALUE_NTF_T tempHandle;
  48:main.c        ****     tempHandle.attrHandle = CYBLE_LEDCAPSENSE_CAPSENSE_CHAR_HANDLE;
 100              		.loc 1 48 0
 101 000c 01A8     		add	r0, sp, #4
 102 000e 1333     		adds	r3, r3, #19
 103 0010 0381     		strh	r3, [r0, #8]
  49:main.c        ****     tempHandle.value.val = (uint8*)&fingerPos;
 104              		.loc 1 49 0
 105 0012 104B     		ldr	r3, .L10+4
 106 0014 0193     		str	r3, [sp, #4]
  50:main.c        ****     tempHandle.value.len = 2;
 107              		.loc 1 50 0
 108 0016 0223     		movs	r3, #2
 109 0018 8380     		strh	r3, [r0, #4]
  51:main.c        ****     CyBle_GattsWriteAttributeValue(&tempHandle, 0, &cyBle_connHandle, 0);
 110              		.loc 1 51 0
 111 001a 0023     		movs	r3, #0
 112 001c 0E4A     		ldr	r2, .L10+8
 113 001e 0021     		movs	r1, #0
 114 0020 FFF7FEFF 		bl	CyBle_GattsWriteAttributeValue
 115              	.LVL2:
  52:main.c        ****     
  53:main.c        ****     //若char被notify,每次值变化都进行通知
  54:main.c        ****     if (capsenseNotify && (fingerPos != fingerPosOld))
 116              		.loc 1 54 0
 117 0024 0D4B     		ldr	r3, .L10+12
ARM GAS  C:\Users\wl\AppData\Local\Temp\ccR4N6qd.s 			page 4


 118 0026 1B68     		ldr	r3, [r3]
 119 0028 002B     		cmp	r3, #0
 120 002a 0FD0     		beq	.L6
 121              		.loc 1 54 0 is_stmt 0 discriminator 1
 122 002c 094B     		ldr	r3, .L10+4
 123 002e 1A88     		ldrh	r2, [r3]
 124 0030 5B88     		ldrh	r3, [r3, #2]
 125 0032 9A42     		cmp	r2, r3
 126 0034 0AD0     		beq	.L6
  55:main.c        ****     {
  56:main.c        ****         CyBle_GattsNotification(cyBle_connHandle, &tempHandle);
 127              		.loc 1 56 0 is_stmt 1
 128 0036 084A     		ldr	r2, .L10+8
 129 0038 1378     		ldrb	r3, [r2]
 130 003a 5078     		ldrb	r0, [r2, #1]
 131 003c 0002     		lsls	r0, r0, #8
 132 003e 1843     		orrs	r0, r3
 133 0040 01A9     		add	r1, sp, #4
 134 0042 FFF7FEFF 		bl	CyBle_GattsNotification
 135              	.LVL3:
  57:main.c        ****         fingerPosOld = fingerPos;
 136              		.loc 1 57 0
 137 0046 034B     		ldr	r3, .L10+4
 138 0048 1A88     		ldrh	r2, [r3]
 139 004a 5A80     		strh	r2, [r3, #2]
 140              	.L6:
  58:main.c        ****     }
  59:main.c        ****     
  60:main.c        **** }
 141              		.loc 1 60 0
 142 004c 05B0     		add	sp, sp, #20
 143              		@ sp needed
 144 004e 00BD     		pop	{pc}
 145              	.L11:
 146              		.align	2
 147              	.L10:
 148 0050 00000000 		.word	cyBle_state
 149 0054 00000000 		.word	.LANCHOR0
 150 0058 00000000 		.word	cyBle_connHandle
 151 005c 00000000 		.word	capsenseNotify
 152              		.cfi_endproc
 153              	.LFE36:
 154              		.size	updateCapsense, .-updateCapsense
 155              		.section	.text.bleCallBack,"ax",%progbits
 156              		.align	2
 157              		.global	bleCallBack
 158              		.code	16
 159              		.thumb_func
 160              		.type	bleCallBack, %function
 161              	bleCallBack:
 162              	.LFB38:
  61:main.c        **** 
  62:main.c        **** void bleCallBack(uint32 event, void* eventParam);
  63:main.c        **** 
  64:main.c        **** int main(void)
  65:main.c        **** {
  66:main.c        ****     CyGlobalIntEnable; /* Enable global interrupts. */
ARM GAS  C:\Users\wl\AppData\Local\Temp\ccR4N6qd.s 			page 5


  67:main.c        ****     
  68:main.c        ****     CapSense_Start();
  69:main.c        ****     CapSense_InitializeEnabledBaselines();
  70:main.c        ****     
  71:main.c        ****     CyBle_Start(bleCallBack);
  72:main.c        **** 
  73:main.c        ****     /* Place your initialization/startup code here (e.g. MyInst_Start()) */
  74:main.c        **** 
  75:main.c        ****     for(;;)
  76:main.c        ****     {
  77:main.c        ****         if (!CapSense_IsBusy())
  78:main.c        ****         {
  79:main.c        ****             fingerPos = CapSense_GetCentroidPos(CapSense_LINEARSLIDER0__LS);
  80:main.c        ****             CapSense_UpdateEnabledBaselines();
  81:main.c        ****             CapSense_ScanEnabledWidgets();
  82:main.c        ****             updateCapsense();
  83:main.c        ****          
  84:main.c        ****         }
  85:main.c        ****         
  86:main.c        ****         CyBle_ProcessEvents();
  87:main.c        ****         CyBle_EnterLPM(CYBLE_BLESS_DEEPSLEEP);
  88:main.c        ****     }
  89:main.c        **** }
  90:main.c        **** 
  91:main.c        **** 
  92:main.c        **** void bleCallBack(uint32 event, void* eventParam) 
  93:main.c        **** {
 163              		.loc 1 93 0
 164              		.cfi_startproc
 165              		@ args = 0, pretend = 0, frame = 0
 166              		@ frame_needed = 0, uses_anonymous_args = 0
 167              	.LVL4:
 168 0000 70B5     		push	{r4, r5, r6, lr}
 169              		.cfi_def_cfa_offset 16
 170              		.cfi_offset 4, -16
 171              		.cfi_offset 5, -12
 172              		.cfi_offset 6, -8
 173              		.cfi_offset 14, -4
 174 0002 0C00     		movs	r4, r1
  94:main.c        ****     CYBLE_GATTS_WRITE_REQ_PARAM_T *wrReqParam;
  95:main.c        ****     switch(event)
 175              		.loc 1 95 0
 176 0004 2828     		cmp	r0, #40
 177 0006 08D0     		beq	.L14
 178 0008 02D8     		bhi	.L15
 179 000a 0128     		cmp	r0, #1
 180 000c 05D0     		beq	.L14
 181 000e 43E0     		b	.L12
 182              	.L15:
 183 0010 4128     		cmp	r0, #65
 184 0012 0BD0     		beq	.L16
 185 0014 4C28     		cmp	r0, #76
 186 0016 10D0     		beq	.L17
 187 0018 3EE0     		b	.L12
 188              	.L14:
  96:main.c        ****     {
  97:main.c        ****         //启动和断开连接的时候开始广播
ARM GAS  C:\Users\wl\AppData\Local\Temp\ccR4N6qd.s 			page 6


  98:main.c        ****         case CYBLE_EVT_STACK_ON:
  99:main.c        ****         case CYBLE_EVT_GAP_DEVICE_DISCONNECTED:
 100:main.c        ****             capsenseNotify = 0;
 189              		.loc 1 100 0
 190 001a 0022     		movs	r2, #0
 191 001c 1F4B     		ldr	r3, .L19
 192 001e 1A60     		str	r2, [r3]
 101:main.c        ****             CyBle_GappStartAdvertisement(CYBLE_ADVERTISING_FAST);
 193              		.loc 1 101 0
 194 0020 0020     		movs	r0, #0
 195              	.LVL5:
 196 0022 FFF7FEFF 		bl	CyBle_GappStartAdvertisement
 197              	.LVL6:
 102:main.c        ****             PWM_Start();
 198              		.loc 1 102 0
 199 0026 FFF7FEFF 		bl	PWM_Start
 200              	.LVL7:
 103:main.c        ****             break;
 201              		.loc 1 103 0
 202 002a 35E0     		b	.L12
 203              	.LVL8:
 204              	.L16:
 104:main.c        ****          
 105:main.c        ****         case CYBLE_EVT_GATT_CONNECT_IND:
 106:main.c        ****             updateLed();
 205              		.loc 1 106 0
 206 002c FFF7FEFF 		bl	updateLed
 207              	.LVL9:
 107:main.c        ****             updateCapsense();
 208              		.loc 1 107 0
 209 0030 FFF7FEFF 		bl	updateCapsense
 210              	.LVL10:
 108:main.c        ****             PWM_Stop();
 211              		.loc 1 108 0
 212 0034 FFF7FEFF 		bl	PWM_Stop
 213              	.LVL11:
 109:main.c        ****             break;
 214              		.loc 1 109 0
 215 0038 2EE0     		b	.L12
 216              	.LVL12:
 217              	.L17:
 110:main.c        ****             
 111:main.c        ****         case CYBLE_EVT_GATTS_WRITE_REQ:
 112:main.c        ****             wrReqParam = (CYBLE_GATTS_WRITE_REQ_PARAM_T *)eventParam;
 113:main.c        ****             //app写led char value
 114:main.c        ****             if (wrReqParam->handleValPair.attrHandle == CYBLE_LEDCAPSENSE_LED_CHAR_HANDLE)
 218              		.loc 1 114 0
 219 003a 8B89     		ldrh	r3, [r1, #12]
 220 003c 122B     		cmp	r3, #18
 221 003e 15D1     		bne	.L18
 115:main.c        ****             {
 116:main.c        ****                 //只有在允许写的情况下写入数据
 117:main.c        ****                 if(CYBLE_GATT_ERR_NONE == CyBle_GattsWriteAttributeValue(&wrReqParam->handleValPair
 222              		.loc 1 117 0
 223 0040 081D     		adds	r0, r1, #4
 224              	.LVL13:
 225 0042 2E33     		adds	r3, r3, #46
ARM GAS  C:\Users\wl\AppData\Local\Temp\ccR4N6qd.s 			page 7


 226 0044 164A     		ldr	r2, .L19+4
 227 0046 0021     		movs	r1, #0
 228              	.LVL14:
 229 0048 FFF7FEFF 		bl	CyBle_GattsWriteAttributeValue
 230              	.LVL15:
 231 004c 0028     		cmp	r0, #0
 232 004e 0DD1     		bne	.L18
 118:main.c        ****                 {
 119:main.c        ****                     red_Write(!wrReqParam->handleValPair.value.val[0]);
 233              		.loc 1 119 0
 234 0050 6368     		ldr	r3, [r4, #4]
 235 0052 1B78     		ldrb	r3, [r3]
 236 0054 5842     		rsbs	r0, r3, #0
 237 0056 5841     		adcs	r0, r0, r3
 238 0058 C0B2     		uxtb	r0, r0
 239 005a FFF7FEFF 		bl	red_Write
 240              	.LVL16:
 120:main.c        ****                     //必须要有响应
 121:main.c        ****                     CyBle_GattsWriteRsp(cyBle_connHandle); 
 241              		.loc 1 121 0
 242 005e 104A     		ldr	r2, .L19+4
 243 0060 1378     		ldrb	r3, [r2]
 244 0062 5078     		ldrb	r0, [r2, #1]
 245 0064 0002     		lsls	r0, r0, #8
 246 0066 1843     		orrs	r0, r3
 247 0068 FFF7FEFF 		bl	CyBle_GattsWriteRsp
 248              	.LVL17:
 249              	.L18:
 122:main.c        ****                 }
 123:main.c        ****             }
 124:main.c        ****             //request to update the capsense notification
 125:main.c        ****             if (wrReqParam->handleValPair.attrHandle == CYBLE_LEDCAPSENSE_CAPSENSE_CAPSENSECCCD_DES
 250              		.loc 1 125 0
 251 006c A389     		ldrh	r3, [r4, #12]
 252 006e 162B     		cmp	r3, #22
 253 0070 12D1     		bne	.L12
 126:main.c        ****             {
 127:main.c        ****                 CyBle_GattsWriteAttributeValue(&wrReqParam->handleValPair, 0, &cyBle_connHandle, CY
 254              		.loc 1 127 0
 255 0072 0B4D     		ldr	r5, .L19+4
 256 0074 201D     		adds	r0, r4, #4
 257 0076 2A33     		adds	r3, r3, #42
 258 0078 2A00     		movs	r2, r5
 259 007a 0021     		movs	r1, #0
 260 007c FFF7FEFF 		bl	CyBle_GattsWriteAttributeValue
 261              	.LVL18:
 128:main.c        ****                 capsenseNotify = wrReqParam->handleValPair.value.val[0] & 0x01;
 262              		.loc 1 128 0
 263 0080 6368     		ldr	r3, [r4, #4]
 264 0082 1B78     		ldrb	r3, [r3]
 265 0084 0122     		movs	r2, #1
 266 0086 1340     		ands	r3, r2
 267 0088 044A     		ldr	r2, .L19
 268 008a 1360     		str	r3, [r2]
 129:main.c        ****                 CyBle_GattsWriteRsp(cyBle_connHandle); 
 269              		.loc 1 129 0
 270 008c 2B78     		ldrb	r3, [r5]
ARM GAS  C:\Users\wl\AppData\Local\Temp\ccR4N6qd.s 			page 8


 271 008e 6878     		ldrb	r0, [r5, #1]
 272 0090 0002     		lsls	r0, r0, #8
 273 0092 1843     		orrs	r0, r3
 274 0094 FFF7FEFF 		bl	CyBle_GattsWriteRsp
 275              	.LVL19:
 276              	.L12:
 130:main.c        ****             }
 131:main.c        ****     }
 132:main.c        **** }
 277              		.loc 1 132 0
 278              		@ sp needed
 279              	.LVL20:
 280 0098 70BD     		pop	{r4, r5, r6, pc}
 281              	.L20:
 282 009a C046     		.align	2
 283              	.L19:
 284 009c 00000000 		.word	capsenseNotify
 285 00a0 00000000 		.word	cyBle_connHandle
 286              		.cfi_endproc
 287              	.LFE38:
 288              		.size	bleCallBack, .-bleCallBack
 289              		.section	.text.main,"ax",%progbits
 290              		.align	2
 291              		.global	main
 292              		.code	16
 293              		.thumb_func
 294              		.type	main, %function
 295              	main:
 296              	.LFB37:
  65:main.c        ****     CyGlobalIntEnable; /* Enable global interrupts. */
 297              		.loc 1 65 0
 298              		.cfi_startproc
 299              		@ Volatile: function does not return.
 300              		@ args = 0, pretend = 0, frame = 0
 301              		@ frame_needed = 0, uses_anonymous_args = 0
 302 0000 10B5     		push	{r4, lr}
 303              		.cfi_def_cfa_offset 8
 304              		.cfi_offset 4, -8
 305              		.cfi_offset 14, -4
  66:main.c        ****     
 306              		.loc 1 66 0
 307              		.syntax divided
 308              	@ 66 "main.c" 1
 309 0002 62B6     		CPSIE   i
 310              	@ 0 "" 2
  68:main.c        ****     CapSense_InitializeEnabledBaselines();
 311              		.loc 1 68 0
 312              		.thumb
 313              		.syntax unified
 314 0004 FFF7FEFF 		bl	CapSense_Start
 315              	.LVL21:
  69:main.c        ****     
 316              		.loc 1 69 0
 317 0008 FFF7FEFF 		bl	CapSense_InitializeEnabledBaselines
 318              	.LVL22:
  71:main.c        **** 
 319              		.loc 1 71 0
ARM GAS  C:\Users\wl\AppData\Local\Temp\ccR4N6qd.s 			page 9


 320 000c 0B48     		ldr	r0, .L24
 321 000e FFF7FEFF 		bl	CyBle_Start
 322              	.LVL23:
 323              	.L23:
  77:main.c        ****         {
 324              		.loc 1 77 0
 325 0012 FFF7FEFF 		bl	CapSense_IsBusy
 326              	.LVL24:
 327 0016 0028     		cmp	r0, #0
 328 0018 09D1     		bne	.L22
  79:main.c        ****             CapSense_UpdateEnabledBaselines();
 329              		.loc 1 79 0
 330 001a FFF7FEFF 		bl	CapSense_GetCentroidPos
 331              	.LVL25:
 332 001e 084B     		ldr	r3, .L24+4
 333 0020 1880     		strh	r0, [r3]
  80:main.c        ****             CapSense_ScanEnabledWidgets();
 334              		.loc 1 80 0
 335 0022 FFF7FEFF 		bl	CapSense_UpdateEnabledBaselines
 336              	.LVL26:
  81:main.c        ****             updateCapsense();
 337              		.loc 1 81 0
 338 0026 FFF7FEFF 		bl	CapSense_ScanEnabledWidgets
 339              	.LVL27:
  82:main.c        ****          
 340              		.loc 1 82 0
 341 002a FFF7FEFF 		bl	updateCapsense
 342              	.LVL28:
 343              	.L22:
  86:main.c        ****         CyBle_EnterLPM(CYBLE_BLESS_DEEPSLEEP);
 344              		.loc 1 86 0
 345 002e FFF7FEFF 		bl	CyBle_ProcessEvents
 346              	.LVL29:
  87:main.c        ****     }
 347              		.loc 1 87 0
 348 0032 0320     		movs	r0, #3
 349 0034 FFF7FEFF 		bl	CyBle_EnterLPM
 350              	.LVL30:
  88:main.c        **** }
 351              		.loc 1 88 0
 352 0038 EBE7     		b	.L23
 353              	.L25:
 354 003a C046     		.align	2
 355              	.L24:
 356 003c 00000000 		.word	bleCallBack
 357 0040 00000000 		.word	.LANCHOR0
 358              		.cfi_endproc
 359              	.LFE37:
 360              		.size	main, .-main
 361              		.comm	capsenseNotify,4,4
 362              		.global	fingerPosOld
 363              		.global	fingerPos
 364              		.data
 365              		.align	1
 366              		.set	.LANCHOR0,. + 0
 367              		.type	fingerPos, %object
 368              		.size	fingerPos, 2
ARM GAS  C:\Users\wl\AppData\Local\Temp\ccR4N6qd.s 			page 10


 369              	fingerPos:
 370 0000 FFFF     		.short	-1
 371              		.type	fingerPosOld, %object
 372              		.size	fingerPosOld, 2
 373              	fingerPosOld:
 374 0002 FFFF     		.short	-1
 375              		.text
 376              	.Letext0:
 377              		.file 2 "Generated_Source\\PSoC4/cytypes.h"
 378              		.file 3 "Generated_Source\\PSoC4/BLE_Stack.h"
 379              		.file 4 "Generated_Source\\PSoC4/BLE_StackGatt.h"
 380              		.file 5 "Generated_Source\\PSoC4/BLE_StackGattServer.h"
 381              		.file 6 "Generated_Source\\PSoC4/BLE_eventHandler.h"
 382              		.file 7 "Generated_Source\\PSoC4/red.h"
 383              		.file 8 "Generated_Source\\PSoC4/BLE_StackGattDb.h"
 384              		.file 9 "Generated_Source\\PSoC4/BLE.h"
 385              		.file 10 "Generated_Source\\PSoC4/PWM.h"
 386              		.file 11 "Generated_Source\\PSoC4/CapSense.h"
 387              		.file 12 "Generated_Source\\PSoC4/CapSense_CSHL.h"